; ModuleID = '37/1758.c'
source_filename = "37/1758.c"
target datalayout = "e-m:e-p270:32:32-p271:32:32-p272:64:64-i64:64-f80:128-n8:16:32:64-S128"
target triple = "x86_64-pc-linux-gnu"

@.str = private unnamed_addr constant [3 x i8] c"%d\00", align 1
@.str.1 = private unnamed_addr constant [3 x i8] c"%s\00", align 1
@.str.2 = private unnamed_addr constant [4 x i8] c"%c\0A\00", align 1
@.str.3 = private unnamed_addr constant [4 x i8] c"no\0A\00", align 1

; Function Attrs: noinline nounwind uwtable
define dso_local void @main() #0 {
  %1 = alloca [26 x i32], align 16
  %2 = alloca i32, align 4
  %3 = alloca i32, align 4
  %4 = alloca i32, align 4
  %5 = alloca i32, align 4
  %6 = alloca i32, align 4
  %7 = alloca i32, align 4
  %8 = alloca i32, align 4
  %9 = alloca [100 x i8], align 16
  %10 = alloca [26 x i8], align 16
  %11 = call i32 (i8*, ...) @__isoc99_scanf(i8* getelementptr inbounds ([3 x i8], [3 x i8]* @.str, i64 0, i64 0), i32* %5)
  br label %12

12:                                               ; preds = %120, %0
  %13 = load i32, i32* %5, align 4
  %14 = add nsw i32 %13, -1
  store i32 %14, i32* %5, align 4
  %15 = icmp ne i32 %13, 0
  br i1 %15, label %16, label %121

16:                                               ; preds = %12
  store i32 0, i32* %6, align 4
  br label %17

17:                                               ; preds = %24, %16
  %18 = load i32, i32* %6, align 4
  %19 = icmp slt i32 %18, 26
  br i1 %19, label %20, label %27

20:                                               ; preds = %17
  %21 = load i32, i32* %6, align 4
  %22 = sext i32 %21 to i64
  %23 = getelementptr inbounds [26 x i32], [26 x i32]* %1, i64 0, i64 %22
  store i32 0, i32* %23, align 4
  br label %24

24:                                               ; preds = %20
  %25 = load i32, i32* %6, align 4
  %26 = add nsw i32 %25, 1
  store i32 %26, i32* %6, align 4
  br label %17

27:                                               ; preds = %17
  store i32 0, i32* %8, align 4
  store i32 0, i32* %3, align 4
  %28 = getelementptr inbounds [100 x i8], [100 x i8]* %9, i64 0, i64 0
  %29 = call i32 (i8*, ...) @__isoc99_scanf(i8* getelementptr inbounds ([3 x i8], [3 x i8]* @.str.1, i64 0, i64 0), i8* %28)
  %30 = getelementptr inbounds [100 x i8], [100 x i8]* %9, i64 0, i64 0
  %31 = call i64 @strlen(i8* %30) #3
  %32 = trunc i64 %31 to i32
  store i32 %32, i32* %4, align 4
  store i32 0, i32* %6, align 4
  br label %33

33:                                               ; preds = %90, %27
  %34 = load i32, i32* %6, align 4
  %35 = load i32, i32* %4, align 4
  %36 = icmp slt i32 %34, %35
  br i1 %36, label %37, label %93

37:                                               ; preds = %33
  %38 = load i32, i32* %6, align 4
  %39 = icmp eq i32 %38, 0
  br i1 %39, label %40, label %50

40:                                               ; preds = %37
  %41 = load i32, i32* %6, align 4
  %42 = sext i32 %41 to i64
  %43 = getelementptr inbounds [100 x i8], [100 x i8]* %9, i64 0, i64 %42
  %44 = load i8, i8* %43, align 1
  %45 = load i32, i32* %8, align 4
  %46 = sext i32 %45 to i64
  %47 = getelementptr inbounds [26 x i8], [26 x i8]* %10, i64 0, i64 %46
  store i8 %44, i8* %47, align 1
  %48 = load i32, i32* %8, align 4
  %49 = add nsw i32 %48, 1
  store i32 %49, i32* %8, align 4
  br label %89

50:                                               ; preds = %37
  store i32 0, i32* %2, align 4
  store i32 0, i32* %7, align 4
  br label %51

51:                                               ; preds = %72, %50
  %52 = load i32, i32* %7, align 4
  %53 = load i32, i32* %6, align 4
  %54 = icmp slt i32 %52, %53
  br i1 %54, label %55, label %75

55:                                               ; preds = %51
  %56 = load i32, i32* %7, align 4
  %57 = sext i32 %56 to i64
  %58 = getelementptr inbounds [26 x i8], [26 x i8]* %10, i64 0, i64 %57
  %59 = load i8, i8* %58, align 1
  %60 = sext i8 %59 to i32
  %61 = load i32, i32* %6, align 4
  %62 = sext i32 %61 to i64
  %63 = getelementptr inbounds [100 x i8], [100 x i8]* %9, i64 0, i64 %62
  %64 = load i8, i8* %63, align 1
  %65 = sext i8 %64 to i32
  %66 = icmp eq i32 %60, %65
  br i1 %66, label %67, label %71

67:                                               ; preds = %55
  store i32 1, i32* %2, align 4
  %68 = load i32, i32* %7, align 4
  %69 = sext i32 %68 to i64
  %70 = getelementptr inbounds [26 x i32], [26 x i32]* %1, i64 0, i64 %69
  store i32 1, i32* %70, align 4
  br label %71

71:                                               ; preds = %67, %55
  br label %72

72:                                               ; preds = %71
  %73 = load i32, i32* %7, align 4
  %74 = add nsw i32 %73, 1
  store i32 %74, i32* %7, align 4
  br label %51

75:                                               ; preds = %51
  %76 = load i32, i32* %2, align 4
  %77 = icmp eq i32 %76, 0
  br i1 %77, label %78, label %88

78:                                               ; preds = %75
  %79 = load i32, i32* %6, align 4
  %80 = sext i32 %79 to i64
  %81 = getelementptr inbounds [100 x i8], [100 x i8]* %9, i64 0, i64 %80
  %82 = load i8, i8* %81, align 1
  %83 = load i32, i32* %8, align 4
  %84 = sext i32 %83 to i64
  %85 = getelementptr inbounds [26 x i8], [26 x i8]* %10, i64 0, i64 %84
  store i8 %82, i8* %85, align 1
  %86 = load i32, i32* %8, align 4
  %87 = add nsw i32 %86, 1
  store i32 %87, i32* %8, align 4
  br label %88

88:                                               ; preds = %78, %75
  br label %89

89:                                               ; preds = %88, %40
  br label %90

90:                                               ; preds = %89
  %91 = load i32, i32* %6, align 4
  %92 = add nsw i32 %91, 1
  store i32 %92, i32* %6, align 4
  br label %33

93:                                               ; preds = %33
  store i32 0, i32* %6, align 4
  br label %94

94:                                               ; preds = %112, %93
  %95 = load i32, i32* %6, align 4
  %96 = load i32, i32* %8, align 4
  %97 = icmp slt i32 %95, %96
  br i1 %97, label %98, label %115

98:                                               ; preds = %94
  %99 = load i32, i32* %6, align 4
  %100 = sext i32 %99 to i64
  %101 = getelementptr inbounds [26 x i32], [26 x i32]* %1, i64 0, i64 %100
  %102 = load i32, i32* %101, align 4
  %103 = icmp eq i32 %102, 0
  br i1 %103, label %104, label %111

104:                                              ; preds = %98
  %105 = load i32, i32* %6, align 4
  %106 = sext i32 %105 to i64
  %107 = getelementptr inbounds [26 x i8], [26 x i8]* %10, i64 0, i64 %106
  %108 = load i8, i8* %107, align 1
  %109 = sext i8 %108 to i32
  %110 = call i32 (i8*, ...) @printf(i8* getelementptr inbounds ([4 x i8], [4 x i8]* @.str.2, i64 0, i64 0), i32 %109)
  store i32 1, i32* %3, align 4
  br label %115

111:                                              ; preds = %98
  br label %112

112:                                              ; preds = %111
  %113 = load i32, i32* %6, align 4
  %114 = add nsw i32 %113, 1
  store i32 %114, i32* %6, align 4
  br label %94

115:                                              ; preds = %104, %94
  %116 = load i32, i32* %3, align 4
  %117 = icmp eq i32 %116, 0
  br i1 %117, label %118, label %120

118:                                              ; preds = %115
  %119 = call i32 (i8*, ...) @printf(i8* getelementptr inbounds ([4 x i8], [4 x i8]* @.str.3, i64 0, i64 0))
  br label %120

120:                                              ; preds = %118, %115
  br label %12

121:                                              ; preds = %12
  ret void
}

declare dso_local i32 @__isoc99_scanf(i8*, ...) #1

; Function Attrs: nounwind readonly
declare dso_local i64 @strlen(i8*) #2

declare dso_local i32 @printf(i8*, ...) #1


!llvm.module.flags = !{!0}
!llvm.ident = !{!1}

!0 = !{i32 1, !"wchar_size", i32 4}
!1 = !{!"clang version 10.0.0-4ubuntu1 "}
